; ModuleID = 'source-C-CXX/7/1270.cpp'
source_filename = "source-C-CXX/7/1270.cpp"
target datalayout = "e-m:e-p270:32:32-p271:32:32-p272:64:64-i64:64-f80:128-n8:16:32:64-S128"
target triple = "x86_64-pc-linux-gnu"

%"class.std::ios_base::Init" = type { i8 }
%"class.std::basic_istream" = type { i32 (...)**, i64, %"class.std::basic_ios" }
%"class.std::basic_ios" = type { %"class.std::ios_base", %"class.std::basic_ostream"*, i8, i8, %"class.std::basic_streambuf"*, %"class.std::ctype"*, %"class.std::num_put"*, %"class.std::num_get"* }
%"class.std::ios_base" = type { i32 (...)**, i64, i64, i32, i32, i32, %"struct.std::ios_base::_Callback_list"*, %"struct.std::ios_base::_Words", [8 x %"struct.std::ios_base::_Words"], i32, %"struct.std::ios_base::_Words"*, %"class.std::locale" }
%"struct.std::ios_base::_Callback_list" = type { %"struct.std::ios_base::_Callback_list"*, void (i32, %"class.std::ios_base"*, i32)*, i32, i32 }
%"struct.std::ios_base::_Words" = type { i8*, i64 }
%"class.std::locale" = type { %"class.std::locale::_Impl"* }
%"class.std::locale::_Impl" = type { i32, %"class.std::locale::facet"**, i64, %"class.std::locale::facet"**, i8** }
%"class.std::locale::facet" = type <{ i32 (...)**, i32, [4 x i8] }>
%"class.std::basic_ostream" = type { i32 (...)**, %"class.std::basic_ios" }
%"class.std::basic_streambuf" = type { i32 (...)**, i8*, i8*, i8*, i8*, i8*, i8*, %"class.std::locale" }
%"class.std::ctype" = type <{ %"class.std::locale::facet.base", [4 x i8], %struct.__locale_struct*, i8, [7 x i8], i32*, i32*, i16*, i8, [256 x i8], [256 x i8], i8, [6 x i8] }>
%"class.std::locale::facet.base" = type <{ i32 (...)**, i32 }>
%struct.__locale_struct = type { [13 x %struct.__locale_data*], i16*, i32*, i32*, [13 x i8*] }
%struct.__locale_data = type opaque
%"class.std::num_put" = type { %"class.std::locale::facet.base", [4 x i8] }
%"class.std::num_get" = type { %"class.std::locale::facet.base", [4 x i8] }

@_ZStL8__ioinit = internal global %"class.std::ios_base::Init" zeroinitializer, align 1
@__dso_handle = external hidden global i8
@m = dso_local global i32 0, align 4
@n = dso_local global i32 0, align 4
@a = dso_local global [100 x i32] zeroinitializer, align 16
@b = dso_local global [100 x i32] zeroinitializer, align 16
@_ZSt3cin = external global %"class.std::basic_istream", align 8
@_ZSt4cout = external global %"class.std::basic_ostream", align 8
@llvm.global_ctors = appending global [1 x { i32, void ()*, i8* }] [{ i32, void ()*, i8* } { i32 65535, void ()* @_GLOBAL__sub_I_1270.cpp, i8* null }]

declare void @_ZNSt8ios_base4InitC1Ev(%"class.std::ios_base::Init"* nonnull align 1 dereferenceable(1)) unnamed_addr #0

; Function Attrs: nounwind
declare void @_ZNSt8ios_base4InitD1Ev(%"class.std::ios_base::Init"* nonnull align 1 dereferenceable(1)) unnamed_addr #1

; Function Attrs: nofree nounwind
declare i32 @__cxa_atexit(void (i8*)*, i8*, i8*) local_unnamed_addr #2

; Function Attrs: mustprogress sspstrong uwtable
define dso_local void @_Z4readv() local_unnamed_addr #3 {
  %1 = tail call nonnull align 8 dereferenceable(16) %"class.std::basic_istream"* @_ZNSirsERi(%"class.std::basic_istream"* nonnull align 8 dereferenceable(16) @_ZSt3cin, i32* nonnull align 4 dereferenceable(4) @m)
  %2 = tail call nonnull align 8 dereferenceable(16) %"class.std::basic_istream"* @_ZNSirsERi(%"class.std::basic_istream"* nonnull align 8 dereferenceable(16) %1, i32* nonnull align 4 dereferenceable(4) @n)
  %3 = load i32, i32* @m, align 4, !tbaa !5
  %4 = icmp slt i32 %3, 1
  br i1 %4, label %5, label %8

5:                                                ; preds = %8, %0
  %6 = load i32, i32* @n, align 4, !tbaa !5
  %7 = icmp slt i32 %6, 1
  br i1 %7, label %16, label %17

8:                                                ; preds = %0, %8
  %9 = phi i64 [ %12, %8 ], [ 1, %0 ]
  %10 = getelementptr inbounds [100 x i32], [100 x i32]* @a, i64 0, i64 %9
  %11 = tail call nonnull align 8 dereferenceable(16) %"class.std::basic_istream"* @_ZNSirsERi(%"class.std::basic_istream"* nonnull align 8 dereferenceable(16) @_ZSt3cin, i32* nonnull align 4 dereferenceable(4) %10)
  %12 = add nuw nsw i64 %9, 1
  %13 = load i32, i32* @m, align 4, !tbaa !5
  %14 = sext i32 %13 to i64
  %15 = icmp slt i64 %9, %14
  br i1 %15, label %8, label %5, !llvm.loop !9

16:                                               ; preds = %17, %5
  ret void

17:                                               ; preds = %5, %17
  %18 = phi i64 [ %21, %17 ], [ 1, %5 ]
  %19 = getelementptr inbounds [100 x i32], [100 x i32]* @b, i64 0, i64 %18
  %20 = tail call nonnull align 8 dereferenceable(16) %"class.std::basic_istream"* @_ZNSirsERi(%"class.std::basic_istream"* nonnull align 8 dereferenceable(16) @_ZSt3cin, i32* nonnull align 4 dereferenceable(4) %19)
  %21 = add nuw nsw i64 %18, 1
  %22 = load i32, i32* @n, align 4, !tbaa !5
  %23 = sext i32 %22 to i64
  %24 = icmp slt i64 %18, %23
  br i1 %24, label %17, label %16, !llvm.loop !11
}

declare nonnull align 8 dereferenceable(16) %"class.std::basic_istream"* @_ZNSirsERi(%"class.std::basic_istream"* nonnull align 8 dereferenceable(16), i32* nonnull align 4 dereferenceable(4)) local_unnamed_addr #0

; Function Attrs: mustprogress sspstrong uwtable
define dso_local void @_Z5sort_v() local_unnamed_addr #3 {
  %1 = load i32, i32* @m, align 4, !tbaa !5
  %2 = sext i32 %1 to i64
  %3 = getelementptr inbounds [100 x i32], [100 x i32]* @a, i64 0, i64 %2
  %4 = getelementptr inbounds i32, i32* %3, i64 1
  tail call void @_Z4sortPiS_(i32* getelementptr inbounds ([100 x i32], [100 x i32]* @a, i64 0, i64 1), i32* nonnull %4)
  %5 = load i32, i32* @n, align 4, !tbaa !5
  %6 = sext i32 %5 to i64
  %7 = getelementptr inbounds [100 x i32], [100 x i32]* @b, i64 0, i64 %6
  %8 = getelementptr inbounds i32, i32* %7, i64 1
  tail call void @_Z4sortPiS_(i32* getelementptr inbounds ([100 x i32], [100 x i32]* @b, i64 0, i64 1), i32* nonnull %8)
  ret void
}

declare void @_Z4sortPiS_(i32*, i32*) local_unnamed_addr #0

; Function Attrs: mustprogress nofree norecurse nosync nounwind sspstrong uwtable
define dso_local void @_Z5stickv() local_unnamed_addr #4 {
  %1 = load i32, i32* @n, align 4, !tbaa !5
  %2 = icmp slt i32 %1, 1
  br i1 %2, label %11, label %3

3:                                                ; preds = %0
  %4 = load i32, i32* @m, align 4
  %5 = sext i32 %4 to i64
  %6 = add nsw i64 %5, 1
  %7 = getelementptr [100 x i32], [100 x i32]* @a, i64 0, i64 %6
  %8 = bitcast i32* %7 to i8*
  %9 = zext i32 %1 to i64
  %10 = shl nuw nsw i64 %9, 2
  call void @llvm.memcpy.p0i8.p0i8.i64(i8* align 4 %8, i8* align 4 bitcast (i32* getelementptr inbounds ([100 x i32], [100 x i32]* @b, i64 0, i64 1) to i8*), i64 %10, i1 false)
  br label %11

11:                                               ; preds = %3, %0
  ret void
}

; Function Attrs: mustprogress sspstrong uwtable
define dso_local void @_Z5printv() local_unnamed_addr #3 {
  %1 = alloca i8, align 1
  %2 = load i32, i32* @m, align 4, !tbaa !5
  %3 = load i32, i32* @n, align 4, !tbaa !5
  %4 = add nsw i32 %3, %2
  %5 = icmp sgt i32 %4, 1
  br i1 %5, label %13, label %6

6:                                                ; preds = %0
  %7 = sext i32 %4 to i64
  br label %8

8:                                                ; preds = %13, %6
  %9 = phi i64 [ %7, %6 ], [ %23, %13 ]
  %10 = getelementptr inbounds [100 x i32], [100 x i32]* @a, i64 0, i64 %9
  %11 = load i32, i32* %10, align 4, !tbaa !5
  %12 = call nonnull align 8 dereferenceable(8) %"class.std::basic_ostream"* @_ZNSolsEi(%"class.std::basic_ostream"* nonnull align 8 dereferenceable(8) @_ZSt4cout, i32 %11)
  ret void

13:                                               ; preds = %0, %13
  %14 = phi i64 [ %19, %13 ], [ 1, %0 ]
  %15 = getelementptr inbounds [100 x i32], [100 x i32]* @a, i64 0, i64 %14
  %16 = load i32, i32* %15, align 4, !tbaa !5
  %17 = call nonnull align 8 dereferenceable(8) %"class.std::basic_ostream"* @_ZNSolsEi(%"class.std::basic_ostream"* nonnull align 8 dereferenceable(8) @_ZSt4cout, i32 %16)
  call void @llvm.lifetime.start.p0i8(i64 1, i8* nonnull %1)
  store i8 32, i8* %1, align 1, !tbaa !12
  %18 = call nonnull align 8 dereferenceable(8) %"class.std::basic_ostream"* @_ZSt16__ostream_insertIcSt11char_traitsIcEERSt13basic_ostreamIT_T0_ES6_PKS3_l(%"class.std::basic_ostream"* nonnull align 8 dereferenceable(8) %17, i8* nonnull %1, i64 1)
  call void @llvm.lifetime.end.p0i8(i64 1, i8* nonnull %1)
  %19 = add nuw nsw i64 %14, 1
  %20 = load i32, i32* @m, align 4, !tbaa !5
  %21 = load i32, i32* @n, align 4, !tbaa !5
  %22 = add nsw i32 %21, %20
  %23 = sext i32 %22 to i64
  %24 = icmp slt i64 %19, %23
  br i1 %24, label %13, label %8, !llvm.loop !13
}

declare nonnull align 8 dereferenceable(8) %"class.std::basic_ostream"* @_ZNSolsEi(%"class.std::basic_ostream"* nonnull align 8 dereferenceable(8), i32) local_unnamed_addr #0

; Function Attrs: mustprogress norecurse sspstrong uwtable
define dso_local i32 @main() local_unnamed_addr #5 {
  %1 = alloca i8, align 1
  %2 = tail call nonnull align 8 dereferenceable(16) %"class.std::basic_istream"* @_ZNSirsERi(%"class.std::basic_istream"* nonnull align 8 dereferenceable(16) @_ZSt3cin, i32* nonnull align 4 dereferenceable(4) @m)
  %3 = tail call nonnull align 8 dereferenceable(16) %"class.std::basic_istream"* @_ZNSirsERi(%"class.std::basic_istream"* nonnull align 8 dereferenceable(16) %2, i32* nonnull align 4 dereferenceable(4) @n)
  %4 = load i32, i32* @m, align 4, !tbaa !5
  %5 = icmp slt i32 %4, 1
  br i1 %5, label %6, label %10

6:                                                ; preds = %10, %0
  %7 = phi i32 [ %4, %0 ], [ %15, %10 ]
  %8 = load i32, i32* @n, align 4, !tbaa !5
  %9 = icmp slt i32 %8, 1
  br i1 %9, label %28, label %18

10:                                               ; preds = %0, %10
  %11 = phi i64 [ %14, %10 ], [ 1, %0 ]
  %12 = getelementptr inbounds [100 x i32], [100 x i32]* @a, i64 0, i64 %11
  %13 = tail call nonnull align 8 dereferenceable(16) %"class.std::basic_istream"* @_ZNSirsERi(%"class.std::basic_istream"* nonnull align 8 dereferenceable(16) @_ZSt3cin, i32* nonnull align 4 dereferenceable(4) %12)
  %14 = add nuw nsw i64 %11, 1
  %15 = load i32, i32* @m, align 4, !tbaa !5
  %16 = sext i32 %15 to i64
  %17 = icmp slt i64 %11, %16
  br i1 %17, label %10, label %6, !llvm.loop !9

18:                                               ; preds = %6, %18
  %19 = phi i64 [ %22, %18 ], [ 1, %6 ]
  %20 = getelementptr inbounds [100 x i32], [100 x i32]* @b, i64 0, i64 %19
  %21 = tail call nonnull align 8 dereferenceable(16) %"class.std::basic_istream"* @_ZNSirsERi(%"class.std::basic_istream"* nonnull align 8 dereferenceable(16) @_ZSt3cin, i32* nonnull align 4 dereferenceable(4) %20)
  %22 = add nuw nsw i64 %19, 1
  %23 = load i32, i32* @n, align 4, !tbaa !5
  %24 = sext i32 %23 to i64
  %25 = icmp slt i64 %19, %24
  br i1 %25, label %18, label %26, !llvm.loop !11

26:                                               ; preds = %18
  %27 = load i32, i32* @m, align 4, !tbaa !5
  br label %28

28:                                               ; preds = %26, %6
  %29 = phi i32 [ %27, %26 ], [ %7, %6 ]
  %30 = sext i32 %29 to i64
  %31 = getelementptr inbounds [100 x i32], [100 x i32]* @a, i64 0, i64 %30
  %32 = getelementptr inbounds i32, i32* %31, i64 1
  tail call void @_Z4sortPiS_(i32* getelementptr inbounds ([100 x i32], [100 x i32]* @a, i64 0, i64 1), i32* nonnull %32)
  %33 = load i32, i32* @n, align 4, !tbaa !5
  %34 = sext i32 %33 to i64
  %35 = getelementptr inbounds [100 x i32], [100 x i32]* @b, i64 0, i64 %34
  %36 = getelementptr inbounds i32, i32* %35, i64 1
  tail call void @_Z4sortPiS_(i32* getelementptr inbounds ([100 x i32], [100 x i32]* @b, i64 0, i64 1), i32* nonnull %36)
  %37 = load i32, i32* @n, align 4, !tbaa !5
  %38 = icmp slt i32 %37, 1
  %39 = load i32, i32* @m, align 4
  br i1 %38, label %47, label %40

40:                                               ; preds = %28
  %41 = sext i32 %39 to i64
  %42 = add nsw i64 %41, 1
  %43 = getelementptr [100 x i32], [100 x i32]* @a, i64 0, i64 %42
  %44 = bitcast i32* %43 to i8*
  %45 = zext i32 %37 to i64
  %46 = shl nuw nsw i64 %45, 2
  tail call void @llvm.memcpy.p0i8.p0i8.i64(i8* align 4 %44, i8* align 4 bitcast (i32* getelementptr inbounds ([100 x i32], [100 x i32]* @b, i64 0, i64 1) to i8*), i64 %46, i1 false) #9
  br label %47

47:                                               ; preds = %28, %40
  %48 = add nsw i32 %39, %37
  %49 = icmp sgt i32 %48, 1
  br i1 %49, label %52, label %50

50:                                               ; preds = %47
  %51 = sext i32 %48 to i64
  br label %64

52:                                               ; preds = %47, %52
  %53 = phi i64 [ %58, %52 ], [ 1, %47 ]
  %54 = getelementptr inbounds [100 x i32], [100 x i32]* @a, i64 0, i64 %53
  %55 = load i32, i32* %54, align 4, !tbaa !5
  %56 = call nonnull align 8 dereferenceable(8) %"class.std::basic_ostream"* @_ZNSolsEi(%"class.std::basic_ostream"* nonnull align 8 dereferenceable(8) @_ZSt4cout, i32 %55)
  call void @llvm.lifetime.start.p0i8(i64 1, i8* nonnull %1)
  store i8 32, i8* %1, align 1, !tbaa !12
  %57 = call nonnull align 8 dereferenceable(8) %"class.std::basic_ostream"* @_ZSt16__ostream_insertIcSt11char_traitsIcEERSt13basic_ostreamIT_T0_ES6_PKS3_l(%"class.std::basic_ostream"* nonnull align 8 dereferenceable(8) %56, i8* nonnull %1, i64 1)
  call void @llvm.lifetime.end.p0i8(i64 1, i8* nonnull %1)
  %58 = add nuw nsw i64 %53, 1
  %59 = load i32, i32* @m, align 4, !tbaa !5
  %60 = load i32, i32* @n, align 4, !tbaa !5
  %61 = add nsw i32 %60, %59
  %62 = sext i32 %61 to i64
  %63 = icmp slt i64 %58, %62
  br i1 %63, label %52, label %64, !llvm.loop !13

64:                                               ; preds = %52, %50
  %65 = phi i64 [ %51, %50 ], [ %62, %52 ]
  %66 = getelementptr inbounds [100 x i32], [100 x i32]* @a, i64 0, i64 %65
  %67 = load i32, i32* %66, align 4, !tbaa !5
  %68 = call nonnull align 8 dereferenceable(8) %"class.std::basic_ostream"* @_ZNSolsEi(%"class.std::basic_ostream"* nonnull align 8 dereferenceable(8) @_ZSt4cout, i32 %67)
  ret i32 0
}

declare nonnull align 8 dereferenceable(8) %"class.std::basic_ostream"* @_ZSt16__ostream_insertIcSt11char_traitsIcEERSt13basic_ostreamIT_T0_ES6_PKS3_l(%"class.std::basic_ostream"* nonnull align 8 dereferenceable(8), i8*, i64) local_unnamed_addr #0

; Function Attrs: sspstrong uwtable
define internal void @_GLOBAL__sub_I_1270.cpp() #6 section ".text.startup" {
  tail call void @_ZNSt8ios_base4InitC1Ev(%"class.std::ios_base::Init"* nonnull align 1 dereferenceable(1) @_ZStL8__ioinit)
  %1 = tail call i32 @__cxa_atexit(void (i8*)* bitcast (void (%"class.std::ios_base::Init"*)* @_ZNSt8ios_base4InitD1Ev to void (i8*)*), i8* getelementptr inbounds (%"class.std::ios_base::Init", %"class.std::ios_base::Init"* @_ZStL8__ioinit, i64 0, i32 0), i8* nonnull @__dso_handle) #9
  ret void
}

; Function Attrs: argmemonly nofree nounwind willreturn
declare void @llvm.memcpy.p0i8.p0i8.i64(i8* noalias nocapture writeonly, i8* noalias nocapture readonly, i64, i1 immarg) #7

; Function Attrs: argmemonly nofree nosync nounwind willreturn
declare void @llvm.lifetime.start.p0i8(i64 immarg, i8* nocapture) #8

; Function Attrs: argmemonly nofree nosync nounwind willreturn
declare void @llvm.lifetime.end.p0i8(i64 immarg, i8* nocapture) #8


!llvm.module.flags = !{!0, !1, !2, !3}
!llvm.ident = !{!4}

!0 = !{i32 1, !"wchar_size", i32 4}
!1 = !{i32 7, !"PIC Level", i32 2}
!2 = !{i32 7, !"PIE Level", i32 2}
!3 = !{i32 7, !"uwtable", i32 1}
!4 = !{!"clang version 13.0.0"}
!5 = !{!6, !6, i64 0}
!6 = !{!"int", !7, i64 0}
!7 = !{!"omnipotent char", !8, i64 0}
!8 = !{!"Simple C++ TBAA"}
!9 = distinct !{!9, !10}
!10 = !{!"llvm.loop.mustprogress"}
!11 = distinct !{!11, !10}
!12 = !{!7, !7, i64 0}
!13 = distinct !{!13, !10}
